target datalayout = "e-m:e-p270:32:32-p271:32:32-p272:64:64-i64:64-i128:128-f80:128-n8:16:32:64-S128"
target triple = "x86_64-pc-linux-gnu"

%"struct.url::URLComponentSource" = type { ptr, ptr, ptr, ptr, ptr, ptr, ptr, ptr }
%"struct.url::Parsed" = type { %"struct.url::Component", %"struct.url::Component", %"struct.url::Component", %"struct.url::Component", %"struct.url::Component", %"struct.url::Component", %"struct.url::Component", %"struct.url::Component", ptr }
%"struct.url::Component" = type { i32, i32 }
%"class.url::Replacements" = type { %"struct.url::URLComponentSource", %"struct.url::Parsed" }

; Function Attrs: mustprogress nounwind uwtable
define internal void @_ZN3url12_GLOBAL__N_119DoOverrideComponentEPKcRKNS_9ComponentEPS2_PS3_(ptr noundef %0, ptr noundef nonnull align 4 dereferenceable(8) %1, ptr noundef %2, ptr noundef %3) #5 {
  %5 = alloca ptr, align 8
  %6 = alloca ptr, align 8
  %7 = alloca ptr, align 8
  %8 = alloca ptr, align 8
  store ptr %0, ptr %5, align 8, !tbaa !3
  store ptr %1, ptr %6, align 8, !tbaa !52
  store ptr %2, ptr %7, align 8, !tbaa !54
  store ptr %3, ptr %8, align 8, !tbaa !52
  %9 = load ptr, ptr %5, align 8, !tbaa !3
  %10 = icmp ne ptr %9, null
  br i1 %10, label %11, label %16

11:                                               ; preds = %4
  %12 = load ptr, ptr %5, align 8, !tbaa !3
  %13 = load ptr, ptr %7, align 8, !tbaa !54
  store ptr %12, ptr %13, align 8, !tbaa !3
  %14 = load ptr, ptr %6, align 8, !tbaa !52
  %15 = load ptr, ptr %8, align 8, !tbaa !52
  call void @llvm.memcpy.p0.p0.i64(ptr align 4 %15, ptr align 4 %14, i64 8, i1 false), !tbaa.struct !56
  br label %16

16:                                               ; preds = %11, %4
  ret void
}

; Function Attrs: mustprogress nounwind uwtable
define linkonce_odr noundef nonnull align 8 dereferenceable(72) ptr @_ZNK3url12ReplacementsIcE10componentsEv(ptr noundef nonnull align 8 dereferenceable(136) %0) #5 comdat align 2 {
  %2 = alloca ptr, align 8
  store ptr %0, ptr %2, align 8, !tbaa !34
  %3 = load ptr, ptr %2, align 8
  %4 = getelementptr inbounds nuw %"class.url::Replacements", ptr %3, i32 0, i32 1
  ret ptr %4
}

; Function Attrs: mustprogress nounwind uwtable
define linkonce_odr noundef nonnull align 8 dereferenceable(64) ptr @_ZNK3url12ReplacementsIcE7sourcesEv(ptr noundef nonnull align 8 dereferenceable(136) %0) #5 comdat align 2 {
  %2 = alloca ptr, align 8
  store ptr %0, ptr %2, align 8, !tbaa !34
  %3 = load ptr, ptr %2, align 8
  %4 = getelementptr inbounds nuw %"class.url::Replacements", ptr %3, i32 0, i32 0
  ret ptr %4
}

; Function Attrs: mustprogress uwtable
define void @_ZN3url23SetupOverrideComponentsEPKcRKNS_12ReplacementsIcEEPNS_18URLComponentSourceIcEEPNS_6ParsedE(ptr noundef %0, ptr noundef nonnull align 8 dereferenceable(136) %1, ptr noundef %2, ptr noundef %3) #0 {
  %5 = alloca ptr, align 8
  %6 = alloca ptr, align 8
  %7 = alloca ptr, align 8
  %8 = alloca ptr, align 8
  %9 = alloca ptr, align 8
  %10 = alloca ptr, align 8
  store ptr %0, ptr %5, align 8, !tbaa !3
  store ptr %1, ptr %6, align 8, !tbaa !34
  store ptr %2, ptr %7, align 8, !tbaa !36
  store ptr %3, ptr %8, align 8, !tbaa !38
  call void @llvm.lifetime.start.p0(i64 8, ptr %9) #8
  %11 = load ptr, ptr %6, align 8, !tbaa !34
  %12 = call noundef nonnull align 8 dereferenceable(64) ptr @_ZNK3url12ReplacementsIcE7sourcesEv(ptr noundef nonnull align 8 dereferenceable(136) %11)
  store ptr %12, ptr %9, align 8, !tbaa !36
  call void @llvm.lifetime.start.p0(i64 8, ptr %10) #8
  %13 = load ptr, ptr %6, align 8, !tbaa !34
  %14 = call noundef nonnull align 8 dereferenceable(72) ptr @_ZNK3url12ReplacementsIcE10componentsEv(ptr noundef nonnull align 8 dereferenceable(136) %13)
  store ptr %14, ptr %10, align 8, !tbaa !38
  %15 = load ptr, ptr %9, align 8, !tbaa !36
  %16 = getelementptr inbounds nuw %"struct.url::URLComponentSource", ptr %15, i32 0, i32 0
  %17 = load ptr, ptr %16, align 8, !tbaa !40
  %18 = load ptr, ptr %10, align 8, !tbaa !38
  %19 = getelementptr inbounds nuw %"struct.url::Parsed", ptr %18, i32 0, i32 0
  %20 = load ptr, ptr %7, align 8, !tbaa !36
  %21 = getelementptr inbounds nuw %"struct.url::URLComponentSource", ptr %20, i32 0, i32 0
  %22 = load ptr, ptr %8, align 8, !tbaa !38
  %23 = getelementptr inbounds nuw %"struct.url::Parsed", ptr %22, i32 0, i32 0
  call void @_ZN3url12_GLOBAL__N_119DoOverrideComponentEPKcRKNS_9ComponentEPS2_PS3_(ptr noundef %17, ptr noundef nonnull align 4 dereferenceable(8) %19, ptr noundef %21, ptr noundef %23)
  %24 = load ptr, ptr %9, align 8, !tbaa !36
  %25 = getelementptr inbounds nuw %"struct.url::URLComponentSource", ptr %24, i32 0, i32 1
  %26 = load ptr, ptr %25, align 8, !tbaa !42
  %27 = load ptr, ptr %10, align 8, !tbaa !38
  %28 = getelementptr inbounds nuw %"struct.url::Parsed", ptr %27, i32 0, i32 1
  %29 = load ptr, ptr %7, align 8, !tbaa !36
  %30 = getelementptr inbounds nuw %"struct.url::URLComponentSource", ptr %29, i32 0, i32 1
  %31 = load ptr, ptr %8, align 8, !tbaa !38
  %32 = getelementptr inbounds nuw %"struct.url::Parsed", ptr %31, i32 0, i32 1
  call void @_ZN3url12_GLOBAL__N_119DoOverrideComponentEPKcRKNS_9ComponentEPS2_PS3_(ptr noundef %26, ptr noundef nonnull align 4 dereferenceable(8) %28, ptr noundef %30, ptr noundef %32)
  %33 = load ptr, ptr %9, align 8, !tbaa !36
  %34 = getelementptr inbounds nuw %"struct.url::URLComponentSource", ptr %33, i32 0, i32 2
  %35 = load ptr, ptr %34, align 8, !tbaa !43
  %36 = load ptr, ptr %10, align 8, !tbaa !38
  %37 = getelementptr inbounds nuw %"struct.url::Parsed", ptr %36, i32 0, i32 2
  %38 = load ptr, ptr %7, align 8, !tbaa !36
  %39 = getelementptr inbounds nuw %"struct.url::URLComponentSource", ptr %38, i32 0, i32 2
  %40 = load ptr, ptr %8, align 8, !tbaa !38
  %41 = getelementptr inbounds nuw %"struct.url::Parsed", ptr %40, i32 0, i32 2
  call void @_ZN3url12_GLOBAL__N_119DoOverrideComponentEPKcRKNS_9ComponentEPS2_PS3_(ptr noundef %35, ptr noundef nonnull align 4 dereferenceable(8) %37, ptr noundef %39, ptr noundef %41)
  %42 = load ptr, ptr %9, align 8, !tbaa !36
  %43 = getelementptr inbounds nuw %"struct.url::URLComponentSource", ptr %42, i32 0, i32 3
  %44 = load ptr, ptr %43, align 8, !tbaa !44
  %45 = load ptr, ptr %10, align 8, !tbaa !38
  %46 = getelementptr inbounds nuw %"struct.url::Parsed", ptr %45, i32 0, i32 3
  %47 = load ptr, ptr %7, align 8, !tbaa !36
  %48 = getelementptr inbounds nuw %"struct.url::URLComponentSource", ptr %47, i32 0, i32 3
  %49 = load ptr, ptr %8, align 8, !tbaa !38
  %50 = getelementptr inbounds nuw %"struct.url::Parsed", ptr %49, i32 0, i32 3
  call void @_ZN3url12_GLOBAL__N_119DoOverrideComponentEPKcRKNS_9ComponentEPS2_PS3_(ptr noundef %44, ptr noundef nonnull align 4 dereferenceable(8) %46, ptr noundef %48, ptr noundef %50)
  %51 = load ptr, ptr %8, align 8, !tbaa !38
  %52 = getelementptr inbounds nuw %"struct.url::Parsed", ptr %51, i32 0, i32 3
  %53 = getelementptr inbounds nuw %"struct.url::Component", ptr %52, i32 0, i32 1
  %54 = load i32, ptr %53, align 4, !tbaa !45
  %55 = icmp eq i32 %54, -1
  br i1 %55, label %56, label %60

56:                                               ; preds = %4
  %57 = load ptr, ptr %8, align 8, !tbaa !38
  %58 = getelementptr inbounds nuw %"struct.url::Parsed", ptr %57, i32 0, i32 3
  %59 = getelementptr inbounds nuw %"struct.url::Component", ptr %58, i32 0, i32 1
  store i32 0, ptr %59, align 4, !tbaa !45
  br label %60

60:                                               ; preds = %56, %4
  %61 = load ptr, ptr %9, align 8, !tbaa !36
  %62 = getelementptr inbounds nuw %"struct.url::URLComponentSource", ptr %61, i32 0, i32 4
  %63 = load ptr, ptr %62, align 8, !tbaa !48
  %64 = load ptr, ptr %10, align 8, !tbaa !38
  %65 = getelementptr inbounds nuw %"struct.url::Parsed", ptr %64, i32 0, i32 4
  %66 = load ptr, ptr %7, align 8, !tbaa !36
  %67 = getelementptr inbounds nuw %"struct.url::URLComponentSource", ptr %66, i32 0, i32 4
  %68 = load ptr, ptr %8, align 8, !tbaa !38
  %69 = getelementptr inbounds nuw %"struct.url::Parsed", ptr %68, i32 0, i32 4
  call void @_ZN3url12_GLOBAL__N_119DoOverrideComponentEPKcRKNS_9ComponentEPS2_PS3_(ptr noundef %63, ptr noundef nonnull align 4 dereferenceable(8) %65, ptr noundef %67, ptr noundef %69)
  %70 = load ptr, ptr %9, align 8, !tbaa !36
  %71 = getelementptr inbounds nuw %"struct.url::URLComponentSource", ptr %70, i32 0, i32 5
  %72 = load ptr, ptr %71, align 8, !tbaa !49
  %73 = load ptr, ptr %10, align 8, !tbaa !38
  %74 = getelementptr inbounds nuw %"struct.url::Parsed", ptr %73, i32 0, i32 5
  %75 = load ptr, ptr %7, align 8, !tbaa !36
  %76 = getelementptr inbounds nuw %"struct.url::URLComponentSource", ptr %75, i32 0, i32 5
  %77 = load ptr, ptr %8, align 8, !tbaa !38
  %78 = getelementptr inbounds nuw %"struct.url::Parsed", ptr %77, i32 0, i32 5
  call void @_ZN3url12_GLOBAL__N_119DoOverrideComponentEPKcRKNS_9ComponentEPS2_PS3_(ptr noundef %72, ptr noundef nonnull align 4 dereferenceable(8) %74, ptr noundef %76, ptr noundef %78)
  %79 = load ptr, ptr %9, align 8, !tbaa !36
  %80 = getelementptr inbounds nuw %"struct.url::URLComponentSource", ptr %79, i32 0, i32 6
  %81 = load ptr, ptr %80, align 8, !tbaa !50
  %82 = load ptr, ptr %10, align 8, !tbaa !38
  %83 = getelementptr inbounds nuw %"struct.url::Parsed", ptr %82, i32 0, i32 6
  %84 = load ptr, ptr %7, align 8, !tbaa !36
  %85 = getelementptr inbounds nuw %"struct.url::URLComponentSource", ptr %84, i32 0, i32 6
  %86 = load ptr, ptr %8, align 8, !tbaa !38
  %87 = getelementptr inbounds nuw %"struct.url::Parsed", ptr %86, i32 0, i32 6
  call void @_ZN3url12_GLOBAL__N_119DoOverrideComponentEPKcRKNS_9ComponentEPS2_PS3_(ptr noundef %81, ptr noundef nonnull align 4 dereferenceable(8) %83, ptr noundef %85, ptr noundef %87)
  %88 = load ptr, ptr %9, align 8, !tbaa !36
  %89 = getelementptr inbounds nuw %"struct.url::URLComponentSource", ptr %88, i32 0, i32 7
  %90 = load ptr, ptr %89, align 8, !tbaa !51
  %91 = load ptr, ptr %10, align 8, !tbaa !38
  %92 = getelementptr inbounds nuw %"struct.url::Parsed", ptr %91, i32 0, i32 7
  %93 = load ptr, ptr %7, align 8, !tbaa !36
  %94 = getelementptr inbounds nuw %"struct.url::URLComponentSource", ptr %93, i32 0, i32 7
  %95 = load ptr, ptr %8, align 8, !tbaa !38
  %96 = getelementptr inbounds nuw %"struct.url::Parsed", ptr %95, i32 0, i32 7
  call void @_ZN3url12_GLOBAL__N_119DoOverrideComponentEPKcRKNS_9ComponentEPS2_PS3_(ptr noundef %90, ptr noundef nonnull align 4 dereferenceable(8) %92, ptr noundef %94, ptr noundef %96)
  call void @llvm.lifetime.end.p0(i64 8, ptr %10) #8
  call void @llvm.lifetime.end.p0(i64 8, ptr %9) #8
  ret void
}