; Function Attrs: mustprogress nofree norecurse nosync nounwind willreturn memory(argmem: readwrite) uwtable
define void @_ZN3url23SetupOverrideComponentsEPKcRKNS_12ReplacementsIcEEPNS_18URLComponentSourceIcEEPNS_6ParsedE(ptr noundef readnone captures(none) %0, ptr noundef nonnull readonly align 8 captures(none) dereferenceable(136) %1, ptr noundef writeonly captures(none) %2, ptr noundef captures(none) %3) local_unnamed_addr #3 {
  %5 = load ptr, ptr %1, align 8, !tbaa !32
  %.not.i = icmp eq ptr %5, null
  br i1 %.not.i, label %_ZN3url12_GLOBAL__N_119DoOverrideComponentEPKcRKNS_9ComponentEPS2_PS3_.exit, label %6

6:                                                ; preds = %4
  %7 = getelementptr inbounds nuw i8, ptr %1, i64 64
  store ptr %5, ptr %2, align 8, !tbaa !34
  %8 = load i64, ptr %7, align 8
  store i64 %8, ptr %3, align 4
  br label %_ZN3url12_GLOBAL__N_119DoOverrideComponentEPKcRKNS_9ComponentEPS2_PS3_.exit

_ZN3url12_GLOBAL__N_119DoOverrideComponentEPKcRKNS_9ComponentEPS2_PS3_.exit: ; preds = %4, %6
  %9 = getelementptr inbounds nuw i8, ptr %1, i64 8
  %10 = load ptr, ptr %9, align 8, !tbaa !35
  %.not.i36 = icmp eq ptr %10, null
  br i1 %.not.i36, label %_ZN3url12_GLOBAL__N_119DoOverrideComponentEPKcRKNS_9ComponentEPS2_PS3_.exit37, label %11

11:                                               ; preds = %_ZN3url12_GLOBAL__N_119DoOverrideComponentEPKcRKNS_9ComponentEPS2_PS3_.exit
  %12 = getelementptr inbounds nuw i8, ptr %3, i64 8
  %13 = getelementptr inbounds nuw i8, ptr %2, i64 8
  %14 = getelementptr inbounds nuw i8, ptr %1, i64 72
  store ptr %10, ptr %13, align 8, !tbaa !34
  %15 = load i64, ptr %14, align 8
  store i64 %15, ptr %12, align 4
  br label %_ZN3url12_GLOBAL__N_119DoOverrideComponentEPKcRKNS_9ComponentEPS2_PS3_.exit37

_ZN3url12_GLOBAL__N_119DoOverrideComponentEPKcRKNS_9ComponentEPS2_PS3_.exit37: ; preds = %_ZN3url12_GLOBAL__N_119DoOverrideComponentEPKcRKNS_9ComponentEPS2_PS3_.exit, %11
  %16 = getelementptr inbounds nuw i8, ptr %1, i64 16
  %17 = load ptr, ptr %16, align 8, !tbaa !36
  %.not.i38 = icmp eq ptr %17, null
  br i1 %.not.i38, label %_ZN3url12_GLOBAL__N_119DoOverrideComponentEPKcRKNS_9ComponentEPS2_PS3_.exit39, label %18

18:                                               ; preds = %_ZN3url12_GLOBAL__N_119DoOverrideComponentEPKcRKNS_9ComponentEPS2_PS3_.exit37
  %19 = getelementptr inbounds nuw i8, ptr %3, i64 16
  %20 = getelementptr inbounds nuw i8, ptr %2, i64 16
  %21 = getelementptr inbounds nuw i8, ptr %1, i64 80
  store ptr %17, ptr %20, align 8, !tbaa !34
  %22 = load i64, ptr %21, align 8
  store i64 %22, ptr %19, align 4
  br label %_ZN3url12_GLOBAL__N_119DoOverrideComponentEPKcRKNS_9ComponentEPS2_PS3_.exit39

_ZN3url12_GLOBAL__N_119DoOverrideComponentEPKcRKNS_9ComponentEPS2_PS3_.exit39: ; preds = %_ZN3url12_GLOBAL__N_119DoOverrideComponentEPKcRKNS_9ComponentEPS2_PS3_.exit37, %18
  %23 = getelementptr inbounds nuw i8, ptr %1, i64 24
  %24 = load ptr, ptr %23, align 8, !tbaa !37
  %.not.i40 = icmp eq ptr %24, null
  br i1 %.not.i40, label %_ZN3url12_GLOBAL__N_119DoOverrideComponentEPKcRKNS_9ComponentEPS2_PS3_.exit39._ZN3url12_GLOBAL__N_119DoOverrideComponentEPKcRKNS_9ComponentEPS2_PS3_.exit41_crit_edge, label %25

_ZN3url12_GLOBAL__N_119DoOverrideComponentEPKcRKNS_9ComponentEPS2_PS3_.exit39._ZN3url12_GLOBAL__N_119DoOverrideComponentEPKcRKNS_9ComponentEPS2_PS3_.exit41_crit_edge: ; preds = %_ZN3url12_GLOBAL__N_119DoOverrideComponentEPKcRKNS_9ComponentEPS2_PS3_.exit39
  %.phi.trans.insert = getelementptr inbounds nuw i8, ptr %3, i64 28
  %.pre = load i32, ptr %.phi.trans.insert, align 4, !tbaa !38
  br label %_ZN3url12_GLOBAL__N_119DoOverrideComponentEPKcRKNS_9ComponentEPS2_PS3_.exit41

25:                                               ; preds = %_ZN3url12_GLOBAL__N_119DoOverrideComponentEPKcRKNS_9ComponentEPS2_PS3_.exit39
  %26 = getelementptr inbounds nuw i8, ptr %3, i64 24
  %27 = getelementptr inbounds nuw i8, ptr %2, i64 24
  %28 = getelementptr inbounds nuw i8, ptr %1, i64 88
  store ptr %24, ptr %27, align 8, !tbaa !34
  %29 = load i64, ptr %28, align 8
  store i64 %29, ptr %26, align 4
  %30 = lshr i64 %29, 32
  %31 = trunc nuw i64 %30 to i32
  br label %_ZN3url12_GLOBAL__N_119DoOverrideComponentEPKcRKNS_9ComponentEPS2_PS3_.exit41

_ZN3url12_GLOBAL__N_119DoOverrideComponentEPKcRKNS_9ComponentEPS2_PS3_.exit41: ; preds = %_ZN3url12_GLOBAL__N_119DoOverrideComponentEPKcRKNS_9ComponentEPS2_PS3_.exit39._ZN3url12_GLOBAL__N_119DoOverrideComponentEPKcRKNS_9ComponentEPS2_PS3_.exit41_crit_edge, %25
  %32 = phi i32 [ %.pre, %_ZN3url12_GLOBAL__N_119DoOverrideComponentEPKcRKNS_9ComponentEPS2_PS3_.exit39._ZN3url12_GLOBAL__N_119DoOverrideComponentEPKcRKNS_9ComponentEPS2_PS3_.exit41_crit_edge ], [ %31, %25 ]
  %33 = icmp eq i32 %32, -1
  br i1 %33, label %34, label %36

34:                                               ; preds = %_ZN3url12_GLOBAL__N_119DoOverrideComponentEPKcRKNS_9ComponentEPS2_PS3_.exit41
  %35 = getelementptr inbounds nuw i8, ptr %3, i64 28
  store i32 0, ptr %35, align 4, !tbaa !38
  br label %36

36:                                               ; preds = %34, %_ZN3url12_GLOBAL__N_119DoOverrideComponentEPKcRKNS_9ComponentEPS2_PS3_.exit41
  %37 = getelementptr inbounds nuw i8, ptr %1, i64 32
  %38 = load ptr, ptr %37, align 8, !tbaa !42
  %.not.i42 = icmp eq ptr %38, null
  br i1 %.not.i42, label %_ZN3url12_GLOBAL__N_119DoOverrideComponentEPKcRKNS_9ComponentEPS2_PS3_.exit43, label %39

39:                                               ; preds = %36
  %40 = getelementptr inbounds nuw i8, ptr %3, i64 32
  %41 = getelementptr inbounds nuw i8, ptr %2, i64 32
  %42 = getelementptr inbounds nuw i8, ptr %1, i64 96
  store ptr %38, ptr %41, align 8, !tbaa !34
  %43 = load i64, ptr %42, align 8
  store i64 %43, ptr %40, align 4
  br label %_ZN3url12_GLOBAL__N_119DoOverrideComponentEPKcRKNS_9ComponentEPS2_PS3_.exit43

_ZN3url12_GLOBAL__N_119DoOverrideComponentEPKcRKNS_9ComponentEPS2_PS3_.exit43: ; preds = %36, %39
  %44 = getelementptr inbounds nuw i8, ptr %1, i64 40
  %45 = load ptr, ptr %44, align 8, !tbaa !43
  %.not.i44 = icmp eq ptr %45, null
  br i1 %.not.i44, label %_ZN3url12_GLOBAL__N_119DoOverrideComponentEPKcRKNS_9ComponentEPS2_PS3_.exit45, label %46

46:                                               ; preds = %_ZN3url12_GLOBAL__N_119DoOverrideComponentEPKcRKNS_9ComponentEPS2_PS3_.exit43
  %47 = getelementptr inbounds nuw i8, ptr %3, i64 40
  %48 = getelementptr inbounds nuw i8, ptr %2, i64 40
  %49 = getelementptr inbounds nuw i8, ptr %1, i64 104
  store ptr %45, ptr %48, align 8, !tbaa !34
  %50 = load i64, ptr %49, align 8
  store i64 %50, ptr %47, align 4
  br label %_ZN3url12_GLOBAL__N_119DoOverrideComponentEPKcRKNS_9ComponentEPS2_PS3_.exit45

_ZN3url12_GLOBAL__N_119DoOverrideComponentEPKcRKNS_9ComponentEPS2_PS3_.exit45: ; preds = %_ZN3url12_GLOBAL__N_119DoOverrideComponentEPKcRKNS_9ComponentEPS2_PS3_.exit43, %46
  %51 = getelementptr inbounds nuw i8, ptr %1, i64 48
  %52 = load ptr, ptr %51, align 8, !tbaa !44
  %.not.i46 = icmp eq ptr %52, null
  br i1 %.not.i46, label %_ZN3url12_GLOBAL__N_119DoOverrideComponentEPKcRKNS_9ComponentEPS2_PS3_.exit47, label %53

53:                                               ; preds = %_ZN3url12_GLOBAL__N_119DoOverrideComponentEPKcRKNS_9ComponentEPS2_PS3_.exit45
  %54 = getelementptr inbounds nuw i8, ptr %3, i64 48
  %55 = getelementptr inbounds nuw i8, ptr %2, i64 48
  %56 = getelementptr inbounds nuw i8, ptr %1, i64 112
  store ptr %52, ptr %55, align 8, !tbaa !34
  %57 = load i64, ptr %56, align 8
  store i64 %57, ptr %54, align 4
  br label %_ZN3url12_GLOBAL__N_119DoOverrideComponentEPKcRKNS_9ComponentEPS2_PS3_.exit47

_ZN3url12_GLOBAL__N_119DoOverrideComponentEPKcRKNS_9ComponentEPS2_PS3_.exit47: ; preds = %_ZN3url12_GLOBAL__N_119DoOverrideComponentEPKcRKNS_9ComponentEPS2_PS3_.exit45, %53
  %58 = getelementptr inbounds nuw i8, ptr %1, i64 56
  %59 = load ptr, ptr %58, align 8, !tbaa !45
  %.not.i48 = icmp eq ptr %59, null
  br i1 %.not.i48, label %_ZN3url12_GLOBAL__N_119DoOverrideComponentEPKcRKNS_9ComponentEPS2_PS3_.exit49, label %60

60:                                               ; preds = %_ZN3url12_GLOBAL__N_119DoOverrideComponentEPKcRKNS_9ComponentEPS2_PS3_.exit47
  %61 = getelementptr inbounds nuw i8, ptr %3, i64 56
  %62 = getelementptr inbounds nuw i8, ptr %2, i64 56
  %63 = getelementptr inbounds nuw i8, ptr %1, i64 120
  store ptr %59, ptr %62, align 8, !tbaa !34
  %64 = load i64, ptr %63, align 8
  store i64 %64, ptr %61, align 4
  br label %_ZN3url12_GLOBAL__N_119DoOverrideComponentEPKcRKNS_9ComponentEPS2_PS3_.exit49

_ZN3url12_GLOBAL__N_119DoOverrideComponentEPKcRKNS_9ComponentEPS2_PS3_.exit49: ; preds = %_ZN3url12_GLOBAL__N_119DoOverrideComponentEPKcRKNS_9ComponentEPS2_PS3_.exit47, %60
  ret void
}